; Function Attrs: nounwind uwtable
define dso_local void @shm_mq_detach(ptr noundef %0) local_unnamed_addr #0 {
  %2 = getelementptr inbounds nuw i8, ptr %0, i64 48
  %3 = load i64, ptr %2, align 8
  %.not = icmp eq i64 %3, 0
  br i1 %.not, label %9, label %4

4:                                                ; preds = %1
  %5 = load ptr, ptr %0, align 8
  tail call void asm sideeffect "", "~{memory},~{dirflag},~{fpsr},~{flags}"() #11, !srcloc !18
  %6 = getelementptr inbounds nuw i8, ptr %5, i64 32
  %7 = load volatile i64, ptr %6, align 8
  %8 = add i64 %7, %3
  store volatile i64 %8, ptr %6, align 8
  store i64 0, ptr %2, align 8
  br label %9

9:                                                ; preds = %4, %1
  %10 = load ptr, ptr %0, align 8
  %11 = tail call i8 asm sideeffect "\09lock\09\09\09\0A\09xchgb\09$0,$1\09\0A", "=q,=*m,0,*m,~{memory},~{cc},~{dirflag},~{fpsr},~{flags}"(ptr elementtype(i8) %10, i8 1, ptr elementtype(i8) %10) #11, !srcloc !5
  %.not.i = icmp eq i8 %11, 0
  br i1 %.not.i, label %14, label %12

12:                                               ; preds = %9
  %13 = tail call i32 @s_lock(ptr noundef %10, ptr noundef nonnull @.str, i32 noundef 886, ptr noundef nonnull @__func__.shm_mq_detach_internal) #11
  br label %14

14:                                               ; preds = %12, %9
  %15 = getelementptr inbounds nuw i8, ptr %10, i64 16
  %16 = load ptr, ptr %15, align 8
  %17 = load ptr, ptr @MyProc, align 8
  %18 = icmp eq ptr %16, %17
  br i1 %18, label %19, label %22

19:                                               ; preds = %14
  %20 = getelementptr inbounds nuw i8, ptr %10, i64 8
  %21 = load ptr, ptr %20, align 8
  br label %22

22:                                               ; preds = %19, %14
  %.0.i = phi ptr [ %21, %19 ], [ %16, %14 ]
  %23 = getelementptr inbounds nuw i8, ptr %10, i64 48
  store i8 1, ptr %23, align 8
  tail call void asm sideeffect "", "~{memory},~{dirflag},~{fpsr},~{flags}"() #11, !srcloc !10
  store i8 0, ptr %10, align 8
  %.not10.i = icmp eq ptr %.0.i, null
  br i1 %.not10.i, label %shm_mq_detach_internal.exit, label %24

24:                                               ; preds = %22
  %25 = getelementptr inbounds nuw i8, ptr %.0.i, i64 36
  tail call void @SetLatch(ptr noundef nonnull %25) #11
  br label %shm_mq_detach_internal.exit

shm_mq_detach_internal.exit:                      ; preds = %22, %24
  %26 = getelementptr inbounds nuw i8, ptr %0, i64 8
  %27 = load ptr, ptr %26, align 8
  %.not13 = icmp eq ptr %27, null
  br i1 %.not13, label %31, label %28

28:                                               ; preds = %shm_mq_detach_internal.exit
  %29 = load ptr, ptr %0, align 8
  %30 = ptrtoint ptr %29 to i64
  tail call void @cancel_on_dsm_detach(ptr noundef nonnull %27, ptr noundef nonnull @shm_mq_detach_callback, i64 noundef %30) #11
  br label %31

31:                                               ; preds = %28, %shm_mq_detach_internal.exit
  %32 = getelementptr inbounds nuw i8, ptr %0, i64 24
  %33 = load ptr, ptr %32, align 8
  %.not14 = icmp eq ptr %33, null
  br i1 %.not14, label %35, label %34

34:                                               ; preds = %31
  tail call void @pfree(ptr noundef nonnull %33) #11
  br label %35

35:                                               ; preds = %34, %31
  tail call void @pfree(ptr noundef nonnull %0) #11
  ret void
}